target datalayout = "e-m:e-p270:32:32-p271:32:32-p272:64:64-i64:64-i128:128-f80:128-n8:16:32:64-S128"
target triple = "x86_64-unknown-linux-gnu"

%"struct.std::atomic.4" = type { %"struct.std::__atomic_base.5" }
%"struct.std::__atomic_base.5" = type { i64 }
%struct.grpc_call_stats = type { %struct.grpc_transport_stream_stats, %struct.gpr_timespec }
%struct.grpc_transport_stream_stats = type { %struct.grpc_transport_one_way_stats, %struct.grpc_transport_one_way_stats, %struct.gpr_timespec }
%struct.grpc_transport_one_way_stats = type { i64, i64, i64 }
%struct.gpr_timespec = type { i64, i32, i32 }
%"class.grpc_core::Orphanable" = type { ptr }
%"class.grpc_core::Party" = type { %"class.grpc_core::Activity", %"class.grpc_core::Wakeable", %"class.grpc_core::PartySyncUsingAtomics", ptr, i8, [16 x %"struct.std::atomic.270"] }
%"class.grpc_core::Activity" = type { %"class.grpc_core::Orphanable" }
%"class.grpc_core::Wakeable" = type { ptr }
%"class.grpc_core::PartySyncUsingAtomics" = type { %"struct.std::atomic.4" }
%"struct.std::atomic.270" = type { %"struct.std::__atomic_base.271" }
%"struct.std::__atomic_base.271" = type { ptr }
%"class.grpc_core::CallContext" = type <{ %struct.grpc_call_stats, ptr, double, i8, [7 x i8] }>

; Function Attrs: mustprogress uwtable
define linkonce_odr noundef zeroext i1 @_ZN9grpc_core21PartySyncUsingAtomics5UnrefEv(ptr noundef nonnull align 8 dereferenceable(8) %this) #4 comdat align 2 {
entry:
  %this.addr.i = alloca ptr, align 8
  %__i.addr.i = alloca i64, align 8
  %__m.addr.i = alloca i32, align 4
  %.atomictmp.i = alloca i64, align 8
  %atomic-temp.i = alloca i64, align 8
  %retval = alloca i1, align 1
  %this.addr = alloca ptr, align 8
  %prev_state = alloca i64, align 8
  store ptr %this, ptr %this.addr, align 8
  %this1 = load ptr, ptr %this.addr, align 8
  %state_ = getelementptr inbounds %"class.grpc_core::PartySyncUsingAtomics", ptr %this1, i32 0, i32 0
  store ptr %state_, ptr %this.addr.i, align 8
  store i64 1099511627776, ptr %__i.addr.i, align 8
  store i32 4, ptr %__m.addr.i, align 4
  %this1.i = load ptr, ptr %this.addr.i, align 8
  %0 = load i32, ptr %__m.addr.i, align 4
  %1 = load i64, ptr %__i.addr.i, align 8
  store i64 %1, ptr %.atomictmp.i, align 8
  switch i32 %0, label %monotonic.i [
    i32 1, label %acquire.i
    i32 2, label %acquire.i
    i32 3, label %release.i
    i32 4, label %acqrel.i
    i32 5, label %seqcst.i
  ]

monotonic.i:                                      ; preds = %entry
  %2 = load i64, ptr %.atomictmp.i, align 8
  %3 = atomicrmw sub ptr %this1.i, i64 %2 monotonic, align 8
  store i64 %3, ptr %atomic-temp.i, align 8
  br label %_ZNSt13__atomic_baseImE9fetch_subEmSt12memory_order.exit

acquire.i:                                        ; preds = %entry, %entry
  %4 = load i64, ptr %.atomictmp.i, align 8
  %5 = atomicrmw sub ptr %this1.i, i64 %4 acquire, align 8
  store i64 %5, ptr %atomic-temp.i, align 8
  br label %_ZNSt13__atomic_baseImE9fetch_subEmSt12memory_order.exit

release.i:                                        ; preds = %entry
  %6 = load i64, ptr %.atomictmp.i, align 8
  %7 = atomicrmw sub ptr %this1.i, i64 %6 release, align 8
  store i64 %7, ptr %atomic-temp.i, align 8
  br label %_ZNSt13__atomic_baseImE9fetch_subEmSt12memory_order.exit

acqrel.i:                                         ; preds = %entry
  %8 = load i64, ptr %.atomictmp.i, align 8
  %9 = atomicrmw sub ptr %this1.i, i64 %8 acq_rel, align 8
  store i64 %9, ptr %atomic-temp.i, align 8
  br label %_ZNSt13__atomic_baseImE9fetch_subEmSt12memory_order.exit

seqcst.i:                                         ; preds = %entry
  %10 = load i64, ptr %.atomictmp.i, align 8
  %11 = atomicrmw sub ptr %this1.i, i64 %10 seq_cst, align 8
  store i64 %11, ptr %atomic-temp.i, align 8
  br label %_ZNSt13__atomic_baseImE9fetch_subEmSt12memory_order.exit

_ZNSt13__atomic_baseImE9fetch_subEmSt12memory_order.exit: ; preds = %seqcst.i, %acqrel.i, %release.i, %acquire.i, %monotonic.i
  %12 = load i64, ptr %atomic-temp.i, align 8
  store i64 %12, ptr %prev_state, align 8
  %13 = load i64, ptr %prev_state, align 8
  %and = and i64 %13, -1099511627776
  %cmp = icmp eq i64 %and, 1099511627776
  br i1 %cmp, label %if.then, label %if.end

if.then:                                          ; preds = %_ZNSt13__atomic_baseImE9fetch_subEmSt12memory_order.exit
  %call2 = call noundef zeroext i1 @_ZN9grpc_core21PartySyncUsingAtomics12UnreffedLastEv(ptr noundef nonnull align 8 dereferenceable(8) %this1)
  store i1 %call2, ptr %retval, align 1
  br label %return

if.end:                                           ; preds = %_ZNSt13__atomic_baseImE9fetch_subEmSt12memory_order.exit
  store i1 false, ptr %retval, align 1
  br label %return

return:                                           ; preds = %if.end, %if.then
  %14 = load i1, ptr %retval, align 1
  ret i1 %14
}

; Function Attrs: mustprogress uwtable
define linkonce_odr void @_ZN9grpc_core5Party5UnrefEv(ptr noundef nonnull align 8 dereferenceable(168) %this) #4 comdat align 2 {
entry:
  %this.addr = alloca ptr, align 8
  store ptr %this, ptr %this.addr, align 8
  %this1 = load ptr, ptr %this.addr, align 8
  %sync_ = getelementptr inbounds %"class.grpc_core::Party", ptr %this1, i32 0, i32 2
  %call = call noundef zeroext i1 @_ZN9grpc_core21PartySyncUsingAtomics5UnrefEv(ptr noundef nonnull align 8 dereferenceable(8) %sync_)
  br i1 %call, label %if.then, label %if.end

if.then:                                          ; preds = %entry
  call void @_ZN9grpc_core5Party11PartyIsOverEv(ptr noundef nonnull align 8 dereferenceable(168) %this1)
  br label %if.end

if.end:                                           ; preds = %if.then, %entry
  ret void
}

; Function Attrs: mustprogress uwtable
define linkonce_odr void @_ZN9grpc_core16PromiseBasedCall13InternalUnrefEPKc(ptr noundef nonnull align 8 dereferenceable(1096) %this, ptr noundef %reason) unnamed_addr #4 comdat align 2 {
entry:
  %this.addr = alloca ptr, align 8
  %reason.addr = alloca ptr, align 8
  store ptr %this, ptr %this.addr, align 8
  store ptr %reason, ptr %reason.addr, align 8
  %this1 = load ptr, ptr %this.addr, align 8
  %add.ptr = getelementptr inbounds i8, ptr %this1, i64 112
  call void @_ZN9grpc_core5Party5UnrefEv(ptr noundef nonnull align 8 dereferenceable(168) %add.ptr)
  ret void
}

; Function Attrs: mustprogress uwtable
define void @_ZN9grpc_core11CallContext5UnrefEPKc(ptr noundef nonnull align 8 dereferenceable(97) %this, ptr noundef %reason) #4 align 2 {
entry:
  %this.addr = alloca ptr, align 8
  %reason.addr = alloca ptr, align 8
  store ptr %this, ptr %this.addr, align 8
  store ptr %reason, ptr %reason.addr, align 8
  %this1 = load ptr, ptr %this.addr, align 8
  %call_ = getelementptr inbounds %"class.grpc_core::CallContext", ptr %this1, i32 0, i32 1
  %0 = load ptr, ptr %call_, align 8
  %1 = load ptr, ptr %reason.addr, align 8
  call void @_ZN9grpc_core16PromiseBasedCall13InternalUnrefEPKc(ptr noundef nonnull align 8 dereferenceable(1096) %0, ptr noundef %1)
  ret void
}