; Function Attrs: mustprogress uwtable
define void @_ZN9grpc_core11CallContext5UnrefEPKc(ptr nocapture noundef nonnull readonly align 8 dereferenceable(97) %this, ptr nocapture noundef readnone %reason) local_unnamed_addr #3 align 2 {
entry:
  %call_ = getelementptr inbounds i8, ptr %this, i64 80
  %0 = load ptr, ptr %call_, align 8
  %add.ptr.i = getelementptr inbounds i8, ptr %0, i64 112
  %sync_.i.i = getelementptr inbounds i8, ptr %0, i64 128
  %1 = atomicrmw sub ptr %sync_.i.i, i64 1099511627776 acq_rel, align 8
  %and.i.i.i = and i64 %1, -1099511627776
  %cmp.i.i.i = icmp eq i64 %and.i.i.i, 1099511627776
  br i1 %cmp.i.i.i, label %_ZN9grpc_core21PartySyncUsingAtomics5UnrefEv.exit.i.i, label %_ZN9grpc_core16PromiseBasedCall13InternalUnrefEPKc.exit

_ZN9grpc_core21PartySyncUsingAtomics5UnrefEv.exit.i.i: ; preds = %entry
  %call2.i.i.i = tail call noundef zeroext i1 @_ZN9grpc_core21PartySyncUsingAtomics12UnreffedLastEv(ptr noundef nonnull align 8 dereferenceable(8) %sync_.i.i)
  br i1 %call2.i.i.i, label %if.then.i.i, label %_ZN9grpc_core16PromiseBasedCall13InternalUnrefEPKc.exit

if.then.i.i:                                      ; preds = %_ZN9grpc_core21PartySyncUsingAtomics5UnrefEv.exit.i.i
  tail call void @_ZN9grpc_core5Party11PartyIsOverEv(ptr noundef nonnull align 8 dereferenceable(168) %add.ptr.i)
  br label %_ZN9grpc_core16PromiseBasedCall13InternalUnrefEPKc.exit

_ZN9grpc_core16PromiseBasedCall13InternalUnrefEPKc.exit: ; preds = %entry, %_ZN9grpc_core21PartySyncUsingAtomics5UnrefEv.exit.i.i, %if.then.i.i
  ret void
}